target datalayout = "e-m:e-p270:32:32-p271:32:32-p272:64:64-i64:64-i128:128-f80:128-n8:16:32:64-S128"
target triple = "x86_64-pc-linux-gnu"

; Function Attrs: nounwind uwtable
define i32 @ossl_ffc_params_validate_unverifiable_g(ptr noundef %0, ptr noundef %1, ptr noundef %2, ptr noundef %3, ptr noundef %4, ptr noundef %5, ptr noundef %6) #0 {
  %8 = alloca i32, align 4
  %9 = alloca ptr, align 8
  %10 = alloca ptr, align 8
  %11 = alloca ptr, align 8
  %12 = alloca ptr, align 8
  %13 = alloca ptr, align 8
  %14 = alloca ptr, align 8
  %15 = alloca ptr, align 8
  store ptr %0, ptr %9, align 8, !tbaa !3
  store ptr %1, ptr %10, align 8, !tbaa !8
  store ptr %2, ptr %11, align 8, !tbaa !10
  store ptr %3, ptr %12, align 8, !tbaa !10
  store ptr %4, ptr %13, align 8, !tbaa !10
  store ptr %5, ptr %14, align 8, !tbaa !10
  store ptr %6, ptr %15, align 8, !tbaa !12
  %16 = load ptr, ptr %13, align 8, !tbaa !10
  %17 = call ptr @BN_value_one()
  %18 = call i32 @BN_cmp(ptr noundef %16, ptr noundef %17)
  %19 = icmp sle i32 %18, 0
  br i1 %19, label %25, label %20

20:                                               ; preds = %7
  %21 = load ptr, ptr %13, align 8, !tbaa !10
  %22 = load ptr, ptr %11, align 8, !tbaa !10
  %23 = call i32 @BN_cmp(ptr noundef %21, ptr noundef %22)
  %24 = icmp sge i32 %23, 0
  br i1 %24, label %25, label %29

25:                                               ; preds = %20, %7
  %26 = load ptr, ptr %15, align 8, !tbaa !12
  %27 = load i32, ptr %26, align 4, !tbaa !14
  %28 = or i32 %27, 8
  store i32 %28, ptr %26, align 4, !tbaa !14
  store i32 0, ptr %8, align 4
  br label %49

29:                                               ; preds = %20
  %30 = load ptr, ptr %14, align 8, !tbaa !10
  %31 = load ptr, ptr %13, align 8, !tbaa !10
  %32 = load ptr, ptr %12, align 8, !tbaa !10
  %33 = load ptr, ptr %11, align 8, !tbaa !10
  %34 = load ptr, ptr %9, align 8, !tbaa !3
  %35 = load ptr, ptr %10, align 8, !tbaa !8
  %36 = call i32 @BN_mod_exp_mont(ptr noundef %30, ptr noundef %31, ptr noundef %32, ptr noundef %33, ptr noundef %34, ptr noundef %35)
  %37 = icmp ne i32 %36, 0
  br i1 %37, label %39, label %38

38:                                               ; preds = %29
  store i32 0, ptr %8, align 4
  br label %49

39:                                               ; preds = %29
  %40 = load ptr, ptr %14, align 8, !tbaa !10
  %41 = call ptr @BN_value_one()
  %42 = call i32 @BN_cmp(ptr noundef %40, ptr noundef %41)
  %43 = icmp ne i32 %42, 0
  br i1 %43, label %44, label %48

44:                                               ; preds = %39
  %45 = load ptr, ptr %15, align 8, !tbaa !12
  %46 = load i32, ptr %45, align 4, !tbaa !14
  %47 = or i32 %46, 8
  store i32 %47, ptr %45, align 4, !tbaa !14
  store i32 0, ptr %8, align 4
  br label %49

48:                                               ; preds = %39
  store i32 1, ptr %8, align 4
  br label %49

49:                                               ; preds = %48, %44, %38, %25
  %50 = load i32, ptr %8, align 4
  ret i32 %50
}