; Function Attrs: nounwind uwtable
define range(i32 0, 2) i32 @ossl_ffc_params_validate_unverifiable_g(ptr noundef %0, ptr noundef %1, ptr noundef %2, ptr noundef %3, ptr noundef %4, ptr noundef %5, ptr noundef captures(none) %6) local_unnamed_addr #0 {
  %8 = tail call ptr @BN_value_one() #4
  %9 = tail call i32 @BN_cmp(ptr noundef %4, ptr noundef %8) #4
  %10 = icmp slt i32 %9, 1
  br i1 %10, label %.sink.split, label %11

11:                                               ; preds = %7
  %12 = tail call i32 @BN_cmp(ptr noundef %4, ptr noundef %2) #4
  %13 = icmp sgt i32 %12, -1
  br i1 %13, label %.sink.split, label %14

14:                                               ; preds = %11
  %15 = tail call i32 @BN_mod_exp_mont(ptr noundef %5, ptr noundef %4, ptr noundef %3, ptr noundef %2, ptr noundef %0, ptr noundef %1) #4
  %.not = icmp eq i32 %15, 0
  br i1 %.not, label %21, label %16

16:                                               ; preds = %14
  %17 = tail call ptr @BN_value_one() #4
  %18 = tail call i32 @BN_cmp(ptr noundef %5, ptr noundef %17) #4
  %.not12 = icmp eq i32 %18, 0
  br i1 %.not12, label %21, label %.sink.split

.sink.split:                                      ; preds = %16, %7, %11
  %19 = load i32, ptr %6, align 4, !tbaa !3
  %20 = or i32 %19, 8
  store i32 %20, ptr %6, align 4, !tbaa !3
  br label %21

21:                                               ; preds = %.sink.split, %16, %14
  %.0 = phi i32 [ 0, %14 ], [ 1, %16 ], [ 0, %.sink.split ]
  ret i32 %.0
}